target datalayout = "e-m:e-p270:32:32-p271:32:32-p272:64:64-i64:64-i128:128-f80:128-n8:16:32:64-S128"
target triple = "x86_64-pc-linux-gnu"

%struct.Gia_ManTer_t_ = type { ptr, i32, i32, ptr, ptr, ptr, ptr, ptr, ptr, i32, ptr, ptr, ptr, ptr }
%struct.Gia_Man_t_ = type { ptr, ptr, i32, i32, i32, i32, ptr, ptr, i32, i32, i32, ptr, ptr, %struct.Vec_Int_t_, %struct.Vec_Int_t_, i32, i32, i32, %struct.Vec_Int_t_, ptr, ptr, ptr, i32, i32, i32, i32, ptr, ptr, ptr, ptr, ptr, i32, i32, ptr, i32, ptr, ptr, ptr, ptr, ptr, ptr, ptr, ptr, ptr, ptr, ptr, ptr, ptr, ptr, ptr, ptr, ptr, ptr, %struct.Vec_Int_t_, %struct.Vec_Int_t_, ptr, ptr, ptr, ptr, ptr, ptr, ptr, ptr, ptr, ptr, ptr, ptr, ptr, ptr, ptr, ptr, ptr, ptr, ptr, ptr, ptr, i32, float, float, ptr, ptr, i32, ptr, ptr, ptr, ptr, ptr, ptr, ptr, ptr, ptr, ptr, ptr, ptr, ptr, ptr, ptr, i64, i64, ptr, ptr, i32, i32, i32, i32, i32, i32, i32, i32, i32, i32, i32, i32, ptr, ptr, ptr, ptr, ptr, ptr, ptr, ptr, i32, i32, i32, ptr, i32, i32, ptr, ptr, ptr, ptr, ptr, ptr, i32, i32, ptr, %struct.Vec_Int_t_, %struct.Vec_Int_t_, %struct.Vec_Int_t_, ptr, ptr, ptr }
%struct.Vec_Int_t_ = type { i32, i32, ptr }
%struct.Vec_Ptr_t_ = type { i32, i32, ptr }

; Function Attrs: nounwind uwtable
define internal i32 @Vec_IntSize(ptr noundef %0) #0 {
  %2 = alloca ptr, align 8
  store ptr %0, ptr %2, align 8
  %3 = load ptr, ptr %2, align 8
  %4 = getelementptr inbounds %struct.Vec_Int_t_, ptr %3, i32 0, i32 1
  %5 = load i32, ptr %4, align 4
  ret i32 %5
}

; Function Attrs: nounwind uwtable
define internal ptr @Vec_IntAlloc(i32 noundef %0) #0 {
  %2 = alloca i32, align 4
  %3 = alloca ptr, align 8
  store i32 %0, ptr %2, align 4
  %4 = call noalias ptr @malloc(i64 noundef 16) #10
  store ptr %4, ptr %3, align 8
  %5 = load i32, ptr %2, align 4
  %6 = icmp sgt i32 %5, 0
  br i1 %6, label %7, label %11

7:                                                ; preds = %1
  %8 = load i32, ptr %2, align 4
  %9 = icmp slt i32 %8, 16
  br i1 %9, label %10, label %11

10:                                               ; preds = %7
  store i32 16, ptr %2, align 4
  br label %11

11:                                               ; preds = %10, %7, %1
  %12 = load ptr, ptr %3, align 8
  %13 = getelementptr inbounds %struct.Vec_Int_t_, ptr %12, i32 0, i32 1
  store i32 0, ptr %13, align 4
  %14 = load i32, ptr %2, align 4
  %15 = load ptr, ptr %3, align 8
  %16 = getelementptr inbounds %struct.Vec_Int_t_, ptr %15, i32 0, i32 0
  store i32 %14, ptr %16, align 8
  %17 = load ptr, ptr %3, align 8
  %18 = getelementptr inbounds %struct.Vec_Int_t_, ptr %17, i32 0, i32 0
  %19 = load i32, ptr %18, align 8
  %20 = icmp ne i32 %19, 0
  br i1 %20, label %21, label %28

21:                                               ; preds = %11
  %22 = load ptr, ptr %3, align 8
  %23 = getelementptr inbounds %struct.Vec_Int_t_, ptr %22, i32 0, i32 0
  %24 = load i32, ptr %23, align 8
  %25 = sext i32 %24 to i64
  %26 = mul i64 4, %25
  %27 = call noalias ptr @malloc(i64 noundef %26) #10
  br label %29

28:                                               ; preds = %11
  br label %29

29:                                               ; preds = %28, %21
  %30 = phi ptr [ %27, %21 ], [ null, %28 ]
  %31 = load ptr, ptr %3, align 8
  %32 = getelementptr inbounds %struct.Vec_Int_t_, ptr %31, i32 0, i32 2
  store ptr %30, ptr %32, align 8
  %33 = load ptr, ptr %3, align 8
  ret ptr %33
}

; Function Attrs: nounwind uwtable
define internal i32 @Abc_PrimeCudd(i32 noundef %0) #0 {
  %2 = alloca i32, align 4
  %3 = alloca i32, align 4
  %4 = alloca i32, align 4
  store i32 %0, ptr %2, align 4
  %5 = load i32, ptr %2, align 4
  %6 = add i32 %5, -1
  store i32 %6, ptr %2, align 4
  br label %7

7:                                                ; preds = %32, %1
  %8 = load i32, ptr %2, align 4
  %9 = add i32 %8, 1
  store i32 %9, ptr %2, align 4
  %10 = load i32, ptr %2, align 4
  %11 = and i32 %10, 1
  %12 = icmp ne i32 %11, 0
  br i1 %12, label %13, label %30

13:                                               ; preds = %7
  store i32 1, ptr %4, align 4
  store i32 3, ptr %3, align 4
  br label %14

14:                                               ; preds = %26, %13
  %15 = load i32, ptr %3, align 4
  %16 = load i32, ptr %3, align 4
  %17 = mul nsw i32 %15, %16
  %18 = load i32, ptr %2, align 4
  %19 = icmp ule i32 %17, %18
  br i1 %19, label %20, label %29

20:                                               ; preds = %14
  %21 = load i32, ptr %2, align 4
  %22 = load i32, ptr %3, align 4
  %23 = urem i32 %21, %22
  %24 = icmp eq i32 %23, 0
  br i1 %24, label %25, label %26

25:                                               ; preds = %20
  store i32 0, ptr %4, align 4
  br label %29

26:                                               ; preds = %20
  %27 = load i32, ptr %3, align 4
  %28 = add nsw i32 %27, 2
  store i32 %28, ptr %3, align 4
  br label %14, !llvm.loop !4

29:                                               ; preds = %25, %14
  br label %31

30:                                               ; preds = %7
  store i32 0, ptr %4, align 4
  br label %31

31:                                               ; preds = %30, %29
  br label %32

32:                                               ; preds = %31
  %33 = load i32, ptr %4, align 4
  %34 = icmp ne i32 %33, 0
  %35 = xor i1 %34, true
  br i1 %35, label %7, label %36, !llvm.loop !6

36:                                               ; preds = %32
  %37 = load i32, ptr %2, align 4
  ret i32 %37
}

; Function Attrs: nounwind uwtable
define internal ptr @Vec_PtrAlloc(i32 noundef %0) #0 {
  %2 = alloca i32, align 4
  %3 = alloca ptr, align 8
  store i32 %0, ptr %2, align 4
  %4 = call noalias ptr @malloc(i64 noundef 16) #10
  store ptr %4, ptr %3, align 8
  %5 = load i32, ptr %2, align 4
  %6 = icmp sgt i32 %5, 0
  br i1 %6, label %7, label %11

7:                                                ; preds = %1
  %8 = load i32, ptr %2, align 4
  %9 = icmp slt i32 %8, 8
  br i1 %9, label %10, label %11

10:                                               ; preds = %7
  store i32 8, ptr %2, align 4
  br label %11

11:                                               ; preds = %10, %7, %1
  %12 = load ptr, ptr %3, align 8
  %13 = getelementptr inbounds %struct.Vec_Ptr_t_, ptr %12, i32 0, i32 1
  store i32 0, ptr %13, align 4
  %14 = load i32, ptr %2, align 4
  %15 = load ptr, ptr %3, align 8
  %16 = getelementptr inbounds %struct.Vec_Ptr_t_, ptr %15, i32 0, i32 0
  store i32 %14, ptr %16, align 8
  %17 = load ptr, ptr %3, align 8
  %18 = getelementptr inbounds %struct.Vec_Ptr_t_, ptr %17, i32 0, i32 0
  %19 = load i32, ptr %18, align 8
  %20 = icmp ne i32 %19, 0
  br i1 %20, label %21, label %28

21:                                               ; preds = %11
  %22 = load ptr, ptr %3, align 8
  %23 = getelementptr inbounds %struct.Vec_Ptr_t_, ptr %22, i32 0, i32 0
  %24 = load i32, ptr %23, align 8
  %25 = sext i32 %24 to i64
  %26 = mul i64 8, %25
  %27 = call noalias ptr @malloc(i64 noundef %26) #10
  br label %29

28:                                               ; preds = %11
  br label %29

29:                                               ; preds = %28, %21
  %30 = phi ptr [ %27, %21 ], [ null, %28 ]
  %31 = load ptr, ptr %3, align 8
  %32 = getelementptr inbounds %struct.Vec_Ptr_t_, ptr %31, i32 0, i32 2
  store ptr %30, ptr %32, align 8
  %33 = load ptr, ptr %3, align 8
  ret ptr %33
}

; Function Attrs: nounwind uwtable
define internal i32 @Gia_ManRegNum(ptr noundef %0) #0 {
  %2 = alloca ptr, align 8
  store ptr %0, ptr %2, align 8
  %3 = load ptr, ptr %2, align 8
  %4 = getelementptr inbounds %struct.Gia_Man_t_, ptr %3, i32 0, i32 2
  %5 = load i32, ptr %4, align 8
  ret i32 %5
}

; Function Attrs: nounwind uwtable
define internal i32 @Gia_ManCoNum(ptr noundef %0) #0 {
  %2 = alloca ptr, align 8
  store ptr %0, ptr %2, align 8
  %3 = load ptr, ptr %2, align 8
  %4 = getelementptr inbounds %struct.Gia_Man_t_, ptr %3, i32 0, i32 12
  %5 = load ptr, ptr %4, align 8
  %6 = call i32 @Vec_IntSize(ptr noundef %5)
  ret i32 %6
}

; Function Attrs: nounwind uwtable
define internal i32 @Gia_ManCiNum(ptr noundef %0) #0 {
  %2 = alloca ptr, align 8
  store ptr %0, ptr %2, align 8
  %3 = load ptr, ptr %2, align 8
  %4 = getelementptr inbounds %struct.Gia_Man_t_, ptr %3, i32 0, i32 11
  %5 = load ptr, ptr %4, align 8
  %6 = call i32 @Vec_IntSize(ptr noundef %5)
  ret i32 %6
}

; Function Attrs: nounwind uwtable
define internal i32 @Abc_BitWordNum(i32 noundef %0) #0 {
  %2 = alloca i32, align 4
  store i32 %0, ptr %2, align 4
  %3 = load i32, ptr %2, align 4
  %4 = ashr i32 %3, 5
  %5 = load i32, ptr %2, align 4
  %6 = and i32 %5, 31
  %7 = icmp sgt i32 %6, 0
  %8 = zext i1 %7 to i32
  %9 = add nsw i32 %4, %8
  ret i32 %9
}

; Function Attrs: nounwind uwtable
define ptr @Gia_ManTerCreate(ptr noundef %0) #0 {
  %2 = alloca ptr, align 8
  %3 = alloca ptr, align 8
  store ptr %0, ptr %2, align 8
  %4 = call noalias ptr @calloc(i64 noundef 1, i64 noundef 104) #9
  store ptr %4, ptr %3, align 8
  %5 = load ptr, ptr %2, align 8
  %6 = call ptr @Gia_ManFront(ptr noundef %5)
  %7 = load ptr, ptr %3, align 8
  %8 = getelementptr inbounds %struct.Gia_ManTer_t_, ptr %7, i32 0, i32 0
  store ptr %6, ptr %8, align 8
  %9 = load ptr, ptr %3, align 8
  %10 = getelementptr inbounds %struct.Gia_ManTer_t_, ptr %9, i32 0, i32 1
  store i32 300, ptr %10, align 8
  %11 = load ptr, ptr %3, align 8
  %12 = getelementptr inbounds %struct.Gia_ManTer_t_, ptr %11, i32 0, i32 0
  %13 = load ptr, ptr %12, align 8
  %14 = getelementptr inbounds %struct.Gia_Man_t_, ptr %13, i32 0, i32 25
  %15 = load i32, ptr %14, align 4
  %16 = mul nsw i32 2, %15
  %17 = call i32 @Abc_BitWordNum(i32 noundef %16)
  %18 = sext i32 %17 to i64
  %19 = mul i64 4, %18
  %20 = call noalias ptr @malloc(i64 noundef %19) #10
  %21 = load ptr, ptr %3, align 8
  %22 = getelementptr inbounds %struct.Gia_ManTer_t_, ptr %21, i32 0, i32 11
  store ptr %20, ptr %22, align 8
  %23 = load ptr, ptr %3, align 8
  %24 = getelementptr inbounds %struct.Gia_ManTer_t_, ptr %23, i32 0, i32 0
  %25 = load ptr, ptr %24, align 8
  %26 = call i32 @Gia_ManCiNum(ptr noundef %25)
  %27 = mul nsw i32 2, %26
  %28 = call i32 @Abc_BitWordNum(i32 noundef %27)
  %29 = sext i32 %28 to i64
  %30 = mul i64 4, %29
  %31 = call noalias ptr @malloc(i64 noundef %30) #10
  %32 = load ptr, ptr %3, align 8
  %33 = getelementptr inbounds %struct.Gia_ManTer_t_, ptr %32, i32 0, i32 12
  store ptr %31, ptr %33, align 8
  %34 = load ptr, ptr %3, align 8
  %35 = getelementptr inbounds %struct.Gia_ManTer_t_, ptr %34, i32 0, i32 0
  %36 = load ptr, ptr %35, align 8
  %37 = call i32 @Gia_ManCoNum(ptr noundef %36)
  %38 = mul nsw i32 2, %37
  %39 = call i32 @Abc_BitWordNum(i32 noundef %38)
  %40 = sext i32 %39 to i64
  %41 = mul i64 4, %40
  %42 = call noalias ptr @malloc(i64 noundef %41) #10
  %43 = load ptr, ptr %3, align 8
  %44 = getelementptr inbounds %struct.Gia_ManTer_t_, ptr %43, i32 0, i32 13
  store ptr %42, ptr %44, align 8
  %45 = load ptr, ptr %2, align 8
  %46 = call i32 @Gia_ManRegNum(ptr noundef %45)
  %47 = mul nsw i32 2, %46
  %48 = call i32 @Abc_BitWordNum(i32 noundef %47)
  %49 = load ptr, ptr %3, align 8
  %50 = getelementptr inbounds %struct.Gia_ManTer_t_, ptr %49, i32 0, i32 2
  store i32 %48, ptr %50, align 4
  %51 = call ptr @Vec_PtrAlloc(i32 noundef 1000)
  %52 = load ptr, ptr %3, align 8
  %53 = getelementptr inbounds %struct.Gia_ManTer_t_, ptr %52, i32 0, i32 3
  store ptr %51, ptr %53, align 8
  %54 = load ptr, ptr %2, align 8
  %55 = call i32 @Gia_ManRegNum(ptr noundef %54)
  %56 = sext i32 %55 to i64
  %57 = call noalias ptr @calloc(i64 noundef %56, i64 noundef 4) #9
  %58 = load ptr, ptr %3, align 8
  %59 = getelementptr inbounds %struct.Gia_ManTer_t_, ptr %58, i32 0, i32 7
  store ptr %57, ptr %59, align 8
  %60 = load ptr, ptr %2, align 8
  %61 = call i32 @Gia_ManRegNum(ptr noundef %60)
  %62 = sext i32 %61 to i64
  %63 = call noalias ptr @calloc(i64 noundef %62, i64 noundef 4) #9
  %64 = load ptr, ptr %3, align 8
  %65 = getelementptr inbounds %struct.Gia_ManTer_t_, ptr %64, i32 0, i32 8
  store ptr %63, ptr %65, align 8
  %66 = call i32 @Abc_PrimeCudd(i32 noundef 500)
  %67 = load ptr, ptr %3, align 8
  %68 = getelementptr inbounds %struct.Gia_ManTer_t_, ptr %67, i32 0, i32 9
  store i32 %66, ptr %68, align 8
  %69 = load ptr, ptr %3, align 8
  %70 = getelementptr inbounds %struct.Gia_ManTer_t_, ptr %69, i32 0, i32 9
  %71 = load i32, ptr %70, align 8
  %72 = sext i32 %71 to i64
  %73 = call noalias ptr @calloc(i64 noundef %72, i64 noundef 8) #9
  %74 = load ptr, ptr %3, align 8
  %75 = getelementptr inbounds %struct.Gia_ManTer_t_, ptr %74, i32 0, i32 10
  store ptr %73, ptr %75, align 8
  %76 = call ptr @Vec_IntAlloc(i32 noundef 100)
  %77 = load ptr, ptr %3, align 8
  %78 = getelementptr inbounds %struct.Gia_ManTer_t_, ptr %77, i32 0, i32 5
  store ptr %76, ptr %78, align 8
  %79 = load ptr, ptr %2, align 8
  %80 = call i32 @Gia_ManRegNum(ptr noundef %79)
  %81 = sext i32 %80 to i64
  %82 = call noalias ptr @calloc(i64 noundef %81, i64 noundef 1) #9
  %83 = load ptr, ptr %3, align 8
  %84 = getelementptr inbounds %struct.Gia_ManTer_t_, ptr %83, i32 0, i32 6
  store ptr %82, ptr %84, align 8
  %85 = load ptr, ptr %3, align 8
  ret ptr %85
}