; Function Attrs: nounwind uwtable
define noalias noundef ptr @Gia_ManTerCreate(ptr noundef %0) local_unnamed_addr #0 {
  %2 = tail call noalias dereferenceable_or_null(104) ptr @calloc(i64 noundef 1, i64 noundef 104) #21
  %3 = tail call ptr @Gia_ManFront(ptr noundef %0) #22
  store ptr %3, ptr %2, align 8
  %4 = getelementptr inbounds nuw i8, ptr %2, i64 8
  store i32 300, ptr %4, align 8
  %5 = getelementptr inbounds nuw i8, ptr %3, i64 180
  %6 = load i32, ptr %5, align 4
  %7 = ashr i32 %6, 4
  %8 = and i32 %6, 15
  %9 = icmp ne i32 %8, 0
  %10 = zext i1 %9 to i32
  %11 = add nsw i32 %7, %10
  %12 = sext i32 %11 to i64
  %13 = shl nsw i64 %12, 2
  %14 = tail call noalias ptr @malloc(i64 noundef %13) #23
  %15 = getelementptr inbounds nuw i8, ptr %2, i64 80
  store ptr %14, ptr %15, align 8
  %16 = getelementptr i8, ptr %3, i64 64
  %.val = load ptr, ptr %16, align 8
  %17 = getelementptr i8, ptr %.val, i64 4
  %.val.val = load i32, ptr %17, align 4
  %18 = ashr i32 %.val.val, 4
  %19 = and i32 %.val.val, 15
  %20 = icmp ne i32 %19, 0
  %21 = zext i1 %20 to i32
  %22 = add nsw i32 %18, %21
  %23 = sext i32 %22 to i64
  %24 = shl nsw i64 %23, 2
  %25 = tail call noalias ptr @malloc(i64 noundef %24) #23
  %26 = getelementptr inbounds nuw i8, ptr %2, i64 88
  store ptr %25, ptr %26, align 8
  %27 = getelementptr i8, ptr %3, i64 72
  %.val23 = load ptr, ptr %27, align 8
  %28 = getelementptr i8, ptr %.val23, i64 4
  %.val23.val = load i32, ptr %28, align 4
  %29 = ashr i32 %.val23.val, 4
  %30 = and i32 %.val23.val, 15
  %31 = icmp ne i32 %30, 0
  %32 = zext i1 %31 to i32
  %33 = add nsw i32 %29, %32
  %34 = sext i32 %33 to i64
  %35 = shl nsw i64 %34, 2
  %36 = tail call noalias ptr @malloc(i64 noundef %35) #23
  %37 = getelementptr inbounds nuw i8, ptr %2, i64 96
  store ptr %36, ptr %37, align 8
  %38 = getelementptr i8, ptr %0, i64 16
  %.val24 = load i32, ptr %38, align 8
  %39 = ashr i32 %.val24, 4
  %40 = and i32 %.val24, 15
  %41 = icmp ne i32 %40, 0
  %42 = zext i1 %41 to i32
  %43 = add nsw i32 %39, %42
  %44 = getelementptr inbounds nuw i8, ptr %2, i64 12
  store i32 %43, ptr %44, align 4
  %45 = tail call noalias dereferenceable_or_null(16) ptr @malloc(i64 noundef 16) #23
  %46 = getelementptr inbounds nuw i8, ptr %45, i64 4
  store i32 0, ptr %46, align 4
  store i32 1000, ptr %45, align 8
  %47 = tail call noalias dereferenceable_or_null(8000) ptr @malloc(i64 noundef 8000) #23
  %48 = getelementptr inbounds nuw i8, ptr %45, i64 8
  store ptr %47, ptr %48, align 8
  %49 = getelementptr inbounds nuw i8, ptr %2, i64 16
  store ptr %45, ptr %49, align 8
  %50 = sext i32 %.val24 to i64
  %51 = tail call noalias ptr @calloc(i64 noundef %50, i64 noundef 4) #21
  %52 = getelementptr inbounds nuw i8, ptr %2, i64 48
  store ptr %51, ptr %52, align 8
  %53 = tail call noalias ptr @calloc(i64 noundef %50, i64 noundef 4) #21
  %54 = getelementptr inbounds nuw i8, ptr %2, i64 56
  store ptr %53, ptr %54, align 8
  br label %.loopexit.i

.loopexit.i:                                      ; preds = %.loopexit.i.backedge, %1
  %.012.i = phi i32 [ 499, %1 ], [ %55, %.loopexit.i.backedge ]
  %55 = add i32 %.012.i, 1
  %56 = and i32 %.012.i, 1
  %.not.not.i = icmp eq i32 %56, 0
  br i1 %.not.not.i, label %.preheader.i, label %.loopexit.i.backedge

.loopexit.i.backedge:                             ; preds = %.lr.ph.i, %.loopexit.i
  br label %.loopexit.i, !llvm.loop !4

.preheader.i:                                     ; preds = %.loopexit.i
  %.not15.i = icmp ult i32 %55, 9
  br i1 %.not15.i, label %Abc_PrimeCudd.exit, label %.lr.ph.i

57:                                               ; preds = %.lr.ph.i
  %58 = add nuw nsw i32 %.01116.i, 2
  %59 = mul nuw nsw i32 %58, %58
  %.not.i = icmp ugt i32 %59, %55
  br i1 %.not.i, label %Abc_PrimeCudd.exit, label %.lr.ph.i, !llvm.loop !6

.lr.ph.i:                                         ; preds = %.preheader.i, %57
  %.01116.i = phi i32 [ %58, %57 ], [ 3, %.preheader.i ]
  %60 = urem i32 %55, %.01116.i
  %61 = icmp eq i32 %60, 0
  br i1 %61, label %.loopexit.i.backedge, label %57, !llvm.loop !4

Abc_PrimeCudd.exit:                               ; preds = %.preheader.i, %57
  %62 = getelementptr inbounds nuw i8, ptr %2, i64 64
  store i32 %55, ptr %62, align 8
  %63 = sext i32 %55 to i64
  %64 = tail call noalias ptr @calloc(i64 noundef %63, i64 noundef 8) #21
  %65 = getelementptr inbounds nuw i8, ptr %2, i64 72
  store ptr %64, ptr %65, align 8
  %66 = tail call noalias dereferenceable_or_null(16) ptr @malloc(i64 noundef 16) #23
  %67 = getelementptr inbounds nuw i8, ptr %66, i64 4
  store i32 0, ptr %67, align 4
  store i32 100, ptr %66, align 8
  %68 = tail call noalias dereferenceable_or_null(400) ptr @malloc(i64 noundef 400) #23
  %69 = getelementptr inbounds nuw i8, ptr %66, i64 8
  store ptr %68, ptr %69, align 8
  %70 = getelementptr inbounds nuw i8, ptr %2, i64 32
  store ptr %66, ptr %70, align 8
  %71 = tail call noalias ptr @calloc(i64 noundef %50, i64 noundef 1) #21
  %72 = getelementptr inbounds nuw i8, ptr %2, i64 40
  store ptr %71, ptr %72, align 8
  ret ptr %2
}